(S'DFFBF27444A56E43DAA94AC82106CFED3DC73F29DBCE74DC1F859A60021C85C84CDC44F4E2113DD261FE307F463EE56636C5E3AA8C3E7A2F9DA94D84ABCF74189B42EEE8A44E84BA920C51EB64685DA666D6327433C8D8BE528AD1A7323C924239AA91FD57139CF19F25741A91FAD11984C34AB4041A1E15B183E146EB79710B0D1286FBD2D2099FCC1618BBAEC311D6'
p0
S'2c24805a080435679bd16014d82a664c77ce963c7360931bf08c5149a32b935f352e49f0a918a414b6fe29dbf4b5bb19c2dccc3333ba09f4670aded0e46f87ef'
p1
tp2
.